target datalayout = "e-m:e-p270:32:32-p271:32:32-p272:64:64-i64:64-i128:128-f80:128-n8:16:32:64-S128"
target triple = "x86_64-unknown-linux-gnu"

; Function Attrs: nounwind uwtable
define i32 @wc_ecc_export_x963_ex(ptr noundef %key, ptr noundef %out, ptr noundef %outLen, i32 noundef %compressed) #0 {
entry:
  %retval = alloca i32, align 4
  %key.addr = alloca ptr, align 8
  %out.addr = alloca ptr, align 8
  %outLen.addr = alloca ptr, align 8
  %compressed.addr = alloca i32, align 4
  store ptr %key, ptr %key.addr, align 8
  store ptr %out, ptr %out.addr, align 8
  store ptr %outLen, ptr %outLen.addr, align 8
  store i32 %compressed, ptr %compressed.addr, align 4
  %0 = load i32, ptr %compressed.addr, align 4
  %cmp = icmp eq i32 %0, 0
  br i1 %cmp, label %if.then, label %if.end

if.then:                                          ; preds = %entry
  %1 = load ptr, ptr %key.addr, align 8
  %2 = load ptr, ptr %out.addr, align 8
  %3 = load ptr, ptr %outLen.addr, align 8
  %call = call i32 @wc_ecc_export_x963(ptr noundef %1, ptr noundef %2, ptr noundef %3)
  store i32 %call, ptr %retval, align 4
  br label %return

if.end:                                           ; preds = %entry
  store i32 -174, ptr %retval, align 4
  br label %return

return:                                           ; preds = %if.end, %if.then
  %4 = load i32, ptr %retval, align 4
  ret i32 %4
}